target datalayout = "e-m:e-p270:32:32-p271:32:32-p272:64:64-i64:64-i128:128-f80:128-n8:16:32:64-S128"
target triple = "x86_64-pc-linux-gnu"

%struct._object = type { %union.anon, ptr }
%union.anon = type { i64 }
%struct.anon = type { i32, i32 }

; Function Attrs: alwaysinline nounwind uwtable
define internal i32 @_Py_IsImmortal(ptr noundef %0) #6 {
  %2 = alloca ptr, align 8
  store ptr %0, ptr %2, align 8, !tbaa !3
  %3 = load ptr, ptr %2, align 8, !tbaa !3
  %4 = getelementptr inbounds nuw %struct._object, ptr %3, i32 0, i32 0
  %5 = getelementptr inbounds nuw %struct.anon, ptr %4, i32 0, i32 0
  %6 = load i32, ptr %5, align 8, !tbaa !31
  %7 = icmp slt i32 %6, 0
  %8 = zext i1 %7 to i32
  ret i32 %8
}

; Function Attrs: alwaysinline nounwind uwtable
define internal void @Py_DECREF(ptr noundef %0) #6 {
  %2 = alloca ptr, align 8
  store ptr %0, ptr %2, align 8, !tbaa !3
  %3 = load ptr, ptr %2, align 8, !tbaa !3
  %4 = call i32 @_Py_IsImmortal(ptr noundef %3)
  %5 = icmp ne i32 %4, 0
  br i1 %5, label %6, label %7

6:                                                ; preds = %1
  br label %16

7:                                                ; preds = %1
  %8 = load ptr, ptr %2, align 8, !tbaa !3
  %9 = getelementptr inbounds nuw %struct._object, ptr %8, i32 0, i32 0
  %10 = getelementptr inbounds nuw %struct.anon, ptr %9, i32 0, i32 0
  %11 = load i32, ptr %10, align 8, !tbaa !31
  %12 = add i32 %11, -1
  store i32 %12, ptr %10, align 8, !tbaa !31
  %13 = icmp eq i32 %12, 0
  br i1 %13, label %14, label %16

14:                                               ; preds = %7
  %15 = load ptr, ptr %2, align 8, !tbaa !3
  call void @_Py_Dealloc(ptr noundef %15)
  br label %16

16:                                               ; preds = %6, %14, %7
  ret void
}

; Function Attrs: nounwind uwtable
define internal i32 @spec_add_field(ptr noundef %0, ptr noundef %1, i64 noundef %2) #0 {
  %4 = alloca i32, align 4
  %5 = alloca ptr, align 8
  %6 = alloca ptr, align 8
  %7 = alloca i64, align 8
  %8 = alloca ptr, align 8
  %9 = alloca i32, align 4
  %10 = alloca ptr, align 8
  %11 = alloca i32, align 4
  store ptr %0, ptr %5, align 8, !tbaa !3
  store ptr %1, ptr %6, align 8, !tbaa !46
  store i64 %2, ptr %7, align 8, !tbaa !37
  call void @llvm.lifetime.start.p0(i64 8, ptr %8) #9
  %12 = load i64, ptr %7, align 8, !tbaa !37
  %13 = call ptr @PyLong_FromUnsignedLongLong(i64 noundef %12)
  store ptr %13, ptr %8, align 8, !tbaa !3
  %14 = load ptr, ptr %8, align 8, !tbaa !3
  %15 = icmp eq ptr %14, null
  br i1 %15, label %16, label %17

16:                                               ; preds = %3
  store i32 -1, ptr %4, align 4
  store i32 1, ptr %9, align 4
  br label %33

17:                                               ; preds = %3
  call void @llvm.lifetime.start.p0(i64 8, ptr %10) #9
  %18 = load ptr, ptr %6, align 8, !tbaa !46
  %19 = call ptr @PyUnicode_InternFromString(ptr noundef %18)
  store ptr %19, ptr %10, align 8, !tbaa !3
  %20 = load ptr, ptr %10, align 8, !tbaa !3
  %21 = icmp eq ptr %20, null
  br i1 %21, label %22, label %24

22:                                               ; preds = %17
  %23 = load ptr, ptr %8, align 8, !tbaa !3
  call void @Py_DECREF(ptr noundef %23)
  store i32 -1, ptr %4, align 4
  store i32 1, ptr %9, align 4
  br label %32

24:                                               ; preds = %17
  call void @llvm.lifetime.start.p0(i64 4, ptr %11) #9
  %25 = load ptr, ptr %5, align 8, !tbaa !3
  %26 = load ptr, ptr %10, align 8, !tbaa !3
  %27 = load ptr, ptr %8, align 8, !tbaa !3
  %28 = call i32 @PyDict_SetItem(ptr noundef %25, ptr noundef %26, ptr noundef %27)
  store i32 %28, ptr %11, align 4, !tbaa !12
  %29 = load ptr, ptr %10, align 8, !tbaa !3
  call void @Py_DECREF(ptr noundef %29)
  %30 = load ptr, ptr %8, align 8, !tbaa !3
  call void @Py_DECREF(ptr noundef %30)
  %31 = load i32, ptr %11, align 4, !tbaa !12
  store i32 %31, ptr %4, align 4
  store i32 1, ptr %9, align 4
  call void @llvm.lifetime.end.p0(i64 4, ptr %11) #9
  br label %32

32:                                               ; preds = %24, %22
  call void @llvm.lifetime.end.p0(i64 8, ptr %10) #9
  br label %33

33:                                               ; preds = %32, %16
  call void @llvm.lifetime.end.p0(i64 8, ptr %8) #9
  %34 = load i32, ptr %4, align 4
  ret i32 %34
}