; Function Attrs: nounwind uwtable
define internal fastcc i32 @spec_add_field(ptr noundef nonnull %0, ptr noundef %1, i64 noundef %2) unnamed_addr #0 {
  %4 = tail call ptr @PyLong_FromUnsignedLongLong(i64 noundef %2) #10
  %5 = icmp eq ptr %4, null
  br i1 %5, label %Py_DECREF.exit16, label %6

6:                                                ; preds = %3
  %7 = tail call ptr @PyUnicode_InternFromString(ptr noundef %1) #10
  %8 = icmp eq ptr %7, null
  br i1 %8, label %9, label %14

9:                                                ; preds = %6
  %10 = load i32, ptr %4, align 8, !tbaa !14
  %.not.i15 = icmp sgt i32 %10, -1
  br i1 %.not.i15, label %11, label %Py_DECREF.exit16

11:                                               ; preds = %9
  %12 = add nsw i32 %10, -1
  store i32 %12, ptr %4, align 8, !tbaa !14
  %13 = icmp eq i32 %12, 0
  br i1 %13, label %Py_DECREF.exit16.sink.split, label %Py_DECREF.exit16

14:                                               ; preds = %6
  %15 = tail call i32 @PyDict_SetItem(ptr noundef nonnull %0, ptr noundef nonnull %7, ptr noundef nonnull %4) #10
  %16 = load i32, ptr %7, align 8, !tbaa !14
  %.not.i13 = icmp sgt i32 %16, -1
  br i1 %.not.i13, label %17, label %Py_DECREF.exit14

17:                                               ; preds = %14
  %18 = add nsw i32 %16, -1
  store i32 %18, ptr %7, align 8, !tbaa !14
  %19 = icmp eq i32 %18, 0
  br i1 %19, label %20, label %Py_DECREF.exit14

20:                                               ; preds = %17
  tail call void @_Py_Dealloc(ptr noundef nonnull %7) #10
  br label %Py_DECREF.exit14

Py_DECREF.exit14:                                 ; preds = %14, %17, %20
  %21 = load i32, ptr %4, align 8, !tbaa !14
  %.not.i = icmp sgt i32 %21, -1
  br i1 %.not.i, label %22, label %Py_DECREF.exit16

22:                                               ; preds = %Py_DECREF.exit14
  %23 = add nsw i32 %21, -1
  store i32 %23, ptr %4, align 8, !tbaa !14
  %24 = icmp eq i32 %23, 0
  br i1 %24, label %Py_DECREF.exit16.sink.split, label %Py_DECREF.exit16

Py_DECREF.exit16.sink.split:                      ; preds = %22, %11
  %.0.ph = phi i32 [ -1, %11 ], [ %15, %22 ]
  tail call void @_Py_Dealloc(ptr noundef nonnull %4) #10
  br label %Py_DECREF.exit16

Py_DECREF.exit16:                                 ; preds = %Py_DECREF.exit16.sink.split, %22, %Py_DECREF.exit14, %11, %9, %3
  %.0 = phi i32 [ -1, %3 ], [ -1, %9 ], [ -1, %11 ], [ %15, %Py_DECREF.exit14 ], [ %15, %22 ], [ %.0.ph, %Py_DECREF.exit16.sink.split ]
  ret i32 %.0
}